Certificate:
    Data:
        Version: 1 (0x0)
        Serial Number: 1 (0x1)
    Signature Algorithm: md5WithRSAEncryption
        Issuer: C=US, ST=Unset, L=Unset, O=Unset, CN=www.example.com
        Validity
            Not Before: May 27 08:41:33 2013 GMT
            Not After : May 27 08:41:33 2014 GMT
        Subject: C=US, ST=Unset, O=Unset, CN=www.example.com
        Subject Public Key Info:
            Public Key Algorithm: rsaEncryption
                Public-Key: (1024 bit)
                Modulus:
                    00:df:14:e5:fb:da:08:f6:8c:e3:6d:74:19:7d:c3:
                    ec:61:05:89:b0:4b:e4:a3:47:2e:a7:b3:9e:0b:55:
                    0e:31:69:b5:a3:b5:61:e3:2d:64:9b:77:cc:39:01:
                    db:97:e8:4e:cc:4f:cb:58:6c:d6:d3:3f:4c:24:d7:
                    06:14:c7:e9:7c:bb:93:a0:a6:0c:8f:79:b2:be:09:
                    aa:e1:90:94:ff:8d:4e:12:ad:5c:14:1b:26:20:70:
                    a5:89:ad:a0:a6:93:39:15:ea:0f:7d:1d:9e:f7:17:
                    84:38:fb:a2:33:45:42:a4:2e:07:1c:85:9e:46:db:
                    c0:8c:4a:98:3b:0a:e5:e9:c3
                Exponent: 65537 (0x10001)
    Signature Algorithm: md5WithRSAEncryption
         53:02:39:09:ce:5a:b0:37:c3:d2:9c:82:8e:94:20:b1:12:0e:
         41:6e:a1:48:67:4b:6f:61:ec:8d:f8:25:a7:fb:0d:71:89:ec:
         9a:03:dd:bb:ce:04:a0:23:86:e2:fd:95:0f:81:d9:f6:1e:3c:
         1f:bb:b6:90:2e:d9:45:f0:c9:d5:9b:d6:7f:b7:b4:c1:f2:77:
         c0:65:f2:6b:40:f5:82:e6:12:b2:e0:6f:80:87:7e:fe:54:70:
         49:e7:02:d1:5c:e1:78:48:11:77:56:29:a4:6c:bd:a8:1c:52:
         80:e5:59:87:cc:d7:2f:c4:2b:6d:41:d1:6c:15:86:c4:b1:28:
         d7:1a
-----BEGIN CERTIFICATE-----
MIICDTCCAXYCAQEwDQYJKoZIhvcNAQEEBQAwVzELMAkGA1UEBhMCVVMxDjAMBgNV
BAgTBVVuc2V0MQ4wDAYDVQQHEwVVbnNldDEOMAwGA1UEChMFVW5zZXQxGDAWBgNV
BAMTD3d3dy5leGFtcGxlLmNvbTAeFw0xMzA1MjcwODQxMzNaFw0xNDA1MjcwODQx
MzNaMEcxCzAJBgNVBAYTAlVTMQ4wDAYDVQQIEwVVbnNldDEOMAwGA1UEChMFVW5z
ZXQxGDAWBgNVBAMTD3d3dy5leGFtcGxlLmNvbTCBnzANBgkqhkiG9w0BAQEFAAOB
jQAwgYkCgYEA3xTl+9oI9ozjbXQZfcPsYQWJsEvko0cup7OeC1UOMWm1o7Vh4y1k
m3fMOQHbl+hOzE/LWGzW0z9MJNcGFMfpfLuToKYMj3myvgmq4ZCU/41OEq1cFBsm
IHClia2gppM5FeoPfR2e9xeEOPuiM0VCpC4HHIWeRtvAjEqYOwrl6cMCAwEAATAN
BgkqhkiG9w0BAQQFAAOBgQBTAjkJzlqwN8PSnIKOlCCxEg5BbqFIZ0tvYeyN+CWn
+w1xieyaA927zgSgI4bi/ZUPgdn2Hjwfu7aQLtlF8MnVm9Z/t7TB8nfAZfJrQPWC
5hKy4G+Ah37+VHBJ5wLRXOF4SBF3VimkbL2oHFKA5VmHzNcvxCttQdFsFYbEsSjX
Gg==
-----END CERTIFICATE-----
